; Function Attrs: mustprogress nounwind uwtable
define noundef zeroext i1 @_ZN8nanobind6detail14iterable_checkEP7_object(ptr noundef %0) local_unnamed_addr #9 personality ptr @__gxx_personality_v0 {
  %2 = getelementptr inbounds nuw i8, ptr %0, i64 8
  %3 = load ptr, ptr %2, align 8
  %4 = getelementptr inbounds nuw i8, ptr %3, i64 216
  %5 = load ptr, ptr %4, align 8
  %.not = icmp eq ptr %5, null
  br i1 %.not, label %6, label %10

6:                                                ; preds = %1
  %7 = invoke i32 @PySequence_Check(ptr noundef nonnull %0)
          to label %8 unwind label %12

8:                                                ; preds = %6
  %9 = icmp ne i32 %7, 0
  br label %10

10:                                               ; preds = %8, %1
  %11 = phi i1 [ true, %1 ], [ %9, %8 ]
  ret i1 %11

12:                                               ; preds = %6
  %13 = landingpad { ptr, i32 }
          catch ptr null
  %14 = extractvalue { ptr, i32 } %13, 0
  tail call void @__clang_call_terminate(ptr %14) #29
  unreachable
}